target datalayout = "e-m:e-p270:32:32-p271:32:32-p272:64:64-i64:64-i128:128-f80:128-n8:16:32:64-S128"
target triple = "x86_64-pc-linux-gnu"

%struct.RBasic = type { i64, i64 }

@id_pid = internal global i64 0, align 8
@rb_cWaiter = internal global i64 0, align 8
@.str.173 = private unnamed_addr constant [21 x i8] c"../internal/object.h\00", align 1

; Function Attrs: inlinehint nounwind sspstrong willreturn memory(none) uwtable
define internal zeroext i1 @RB_IMMEDIATE_P(i64 noundef %0) #4 {
  %2 = alloca i64, align 8
  store i64 %0, ptr %2, align 8, !tbaa !35
  %3 = load i64, ptr %2, align 8, !tbaa !35
  %4 = and i64 %3, 7
  %5 = icmp ne i64 %4, 0
  ret i1 %5
}

; Function Attrs: inlinehint nounwind sspstrong willreturn memory(none) uwtable
define internal zeroext i1 @RB_SPECIAL_CONST_P(i64 noundef %0) #4 {
  %2 = alloca i64, align 8
  store i64 %0, ptr %2, align 8, !tbaa !35
  %3 = load i64, ptr %2, align 8, !tbaa !35
  %4 = icmp eq i64 %3, 0
  br i1 %4, label %8, label %5

5:                                                ; preds = %1
  %6 = load i64, ptr %2, align 8, !tbaa !35
  %7 = call zeroext i1 @RB_IMMEDIATE_P(i64 noundef %6) #28
  br label %8

8:                                                ; preds = %5, %1
  %9 = phi i1 [ true, %1 ], [ %7, %5 ]
  ret i1 %9
}

; Function Attrs: inlinehint nounwind sspstrong uwtable
define internal i64 @rb_obj_written(i64 noundef %0, i64 noundef %1, i64 noundef %2, ptr noundef %3, i32 noundef %4) #1 {
  %6 = alloca i64, align 8
  %7 = alloca i64, align 8
  %8 = alloca i64, align 8
  %9 = alloca ptr, align 8
  %10 = alloca i32, align 4
  store i64 %0, ptr %6, align 8, !tbaa !35
  store i64 %1, ptr %7, align 8, !tbaa !35
  store i64 %2, ptr %8, align 8, !tbaa !35
  store ptr %3, ptr %9, align 8, !tbaa !64
  store i32 %4, ptr %10, align 4, !tbaa !34
  %11 = load i64, ptr %8, align 8, !tbaa !35
  %12 = call zeroext i1 @RB_SPECIAL_CONST_P(i64 noundef %11) #28
  br i1 %12, label %16, label %13

13:                                               ; preds = %5
  %14 = load i64, ptr %6, align 8, !tbaa !35
  %15 = load i64, ptr %8, align 8, !tbaa !35
  call void @rb_gc_writebarrier(i64 noundef %14, i64 noundef %15)
  br label %16

16:                                               ; preds = %13, %5
  %17 = load i64, ptr %6, align 8, !tbaa !35
  ret i64 %17
}

; Function Attrs: inlinehint nounwind sspstrong uwtable
define internal void @RBASIC_SET_CLASS_RAW(i64 noundef %0, i64 noundef %1) #1 {
  %3 = alloca i64, align 8
  %4 = alloca i64, align 8
  %5 = alloca ptr, align 8
  store i64 %0, ptr %3, align 8, !tbaa !35
  store i64 %1, ptr %4, align 8, !tbaa !35
  call void @llvm.lifetime.start.p0(i64 8, ptr %5) #27
  %6 = load i64, ptr %3, align 8, !tbaa !35
  %7 = inttoptr i64 %6 to ptr
  %8 = getelementptr inbounds nuw %struct.RBasic, ptr %7, i32 0, i32 1
  store ptr %8, ptr %5, align 8, !tbaa !70
  %9 = load i64, ptr %4, align 8, !tbaa !35
  %10 = load ptr, ptr %5, align 8, !tbaa !70
  store i64 %9, ptr %10, align 8, !tbaa !35
  call void @llvm.lifetime.end.p0(i64 8, ptr %5) #27
  ret void
}

; Function Attrs: inlinehint nounwind sspstrong willreturn memory(read) uwtable
define internal i64 @RBASIC_CLASS(i64 noundef %0) #5 {
  %2 = alloca i64, align 8
  store i64 %0, ptr %2, align 8, !tbaa !35
  %3 = load i64, ptr %2, align 8, !tbaa !35
  %4 = inttoptr i64 %3 to ptr
  %5 = getelementptr inbounds nuw %struct.RBasic, ptr %4, i32 0, i32 1
  %6 = load i64, ptr %5, align 8, !tbaa !214
  ret i64 %6
}

; Function Attrs: inlinehint nounwind sspstrong willreturn memory(none) uwtable
define internal i64 @RB_INT2FIX(i64 noundef %0) #4 {
  %2 = alloca i64, align 8
  %3 = alloca i64, align 8
  %4 = alloca i64, align 8
  %5 = alloca i64, align 8
  %6 = alloca i64, align 8
  %7 = alloca i64, align 8
  store i64 %0, ptr %2, align 8, !tbaa !35
  call void @llvm.lifetime.start.p0(i64 8, ptr %3) #27
  %8 = load i64, ptr %2, align 8, !tbaa !35
  store i64 %8, ptr %3, align 8, !tbaa !35
  call void @llvm.lifetime.start.p0(i64 8, ptr %4) #27
  %9 = load i64, ptr %3, align 8, !tbaa !35
  %10 = shl i64 %9, 1
  %11 = add i64 %10, 1
  store i64 %11, ptr %4, align 8, !tbaa !35
  call void @llvm.lifetime.start.p0(i64 8, ptr %5) #27
  %12 = load i64, ptr %4, align 8, !tbaa !35
  store i64 %12, ptr %5, align 8, !tbaa !35
  call void @llvm.lifetime.start.p0(i64 8, ptr %6) #27
  %13 = load i64, ptr %5, align 8, !tbaa !35
  store i64 %13, ptr %6, align 8, !tbaa !35
  call void @llvm.lifetime.start.p0(i64 8, ptr %7) #27
  %14 = load i64, ptr %6, align 8, !tbaa !35
  store i64 %14, ptr %7, align 8, !tbaa !35
  %15 = load i64, ptr %7, align 8, !tbaa !35
  call void @llvm.lifetime.end.p0(i64 8, ptr %7) #27
  call void @llvm.lifetime.end.p0(i64 8, ptr %6) #27
  call void @llvm.lifetime.end.p0(i64 8, ptr %5) #27
  call void @llvm.lifetime.end.p0(i64 8, ptr %4) #27
  call void @llvm.lifetime.end.p0(i64 8, ptr %3) #27
  ret i64 %15
}

; Function Attrs: inlinehint nounwind sspstrong uwtable
define internal void @RBASIC_SET_CLASS(i64 noundef %0, i64 noundef %1) #1 {
  %3 = alloca i64, align 8
  %4 = alloca i64, align 8
  %5 = alloca i64, align 8
  store i64 %0, ptr %3, align 8, !tbaa !35
  store i64 %1, ptr %4, align 8, !tbaa !35
  call void @llvm.lifetime.start.p0(i64 8, ptr %5) #27
  %6 = load i64, ptr %3, align 8, !tbaa !35
  %7 = call i64 @RBASIC_CLASS(i64 noundef %6) #29
  store i64 %7, ptr %5, align 8, !tbaa !35
  %8 = load i64, ptr %3, align 8, !tbaa !35
  %9 = load i64, ptr %4, align 8, !tbaa !35
  call void @RBASIC_SET_CLASS_RAW(i64 noundef %8, i64 noundef %9)
  %10 = load i64, ptr %3, align 8, !tbaa !35
  %11 = load i64, ptr %5, align 8, !tbaa !35
  %12 = load i64, ptr %4, align 8, !tbaa !35
  %13 = call i64 @rb_obj_written(i64 noundef %10, i64 noundef %11, i64 noundef %12, ptr noundef @.str.173, i32 noundef 61)
  call void @llvm.lifetime.end.p0(i64 8, ptr %5) #27
  ret void
}

; Function Attrs: inlinehint nounwind sspstrong uwtable
define internal i64 @rb_int2num_inline(i32 noundef %0) #1 {
  %2 = alloca i64, align 8
  %3 = alloca i32, align 4
  store i32 %0, ptr %3, align 4, !tbaa !34
  %4 = load i32, ptr %3, align 4, !tbaa !34
  %5 = sext i32 %4 to i64
  %6 = icmp slt i64 %5, 4611686018427387904
  br i1 %6, label %7, label %15

7:                                                ; preds = %1
  %8 = load i32, ptr %3, align 4, !tbaa !34
  %9 = sext i32 %8 to i64
  %10 = icmp sge i64 %9, -4611686018427387904
  br i1 %10, label %11, label %15

11:                                               ; preds = %7
  %12 = load i32, ptr %3, align 4, !tbaa !34
  %13 = sext i32 %12 to i64
  %14 = call i64 @RB_INT2FIX(i64 noundef %13) #28
  store i64 %14, ptr %2, align 8
  br label %19

15:                                               ; preds = %7, %1
  %16 = load i32, ptr %3, align 4, !tbaa !34
  %17 = sext i32 %16 to i64
  %18 = call i64 @rb_int2big(i64 noundef %17)
  store i64 %18, ptr %2, align 8
  br label %19

19:                                               ; preds = %15, %11
  %20 = load i64, ptr %2, align 8
  ret i64 %20
}

; Function Attrs: inlinehint nounwind sspstrong willreturn memory(none) uwtable
define internal zeroext i1 @RB_FIXNUM_P(i64 noundef %0) #4 {
  %2 = alloca i64, align 8
  store i64 %0, ptr %2, align 8, !tbaa !35
  %3 = load i64, ptr %2, align 8, !tbaa !35
  %4 = and i64 %3, 1
  %5 = icmp ne i64 %4, 0
  ret i1 %5
}

; Function Attrs: nounwind sspstrong uwtable
define dso_local i64 @rb_detach_process(i32 noundef %0) #0 {
  %2 = alloca i32, align 4
  %3 = alloca i64, align 8
  store i32 %0, ptr %2, align 4, !tbaa !34
  call void @llvm.lifetime.start.p0(i64 8, ptr %3) #27
  %4 = load i32, ptr %2, align 4, !tbaa !34
  %5 = sext i32 %4 to i64
  %6 = inttoptr i64 %5 to ptr
  %7 = call i64 @rb_thread_create(ptr noundef @detach_process_watcher, ptr noundef %6)
  store i64 %7, ptr %3, align 8, !tbaa !35
  %8 = load i64, ptr %3, align 8, !tbaa !35
  %9 = load i64, ptr @id_pid, align 8, !tbaa !35
  %10 = load i32, ptr %2, align 4, !tbaa !34
  %11 = call i64 @rb_int2num_inline(i32 noundef %10)
  %12 = call i64 @rb_thread_local_aset(i64 noundef %8, i64 noundef %9, i64 noundef %11)
  %13 = load i64, ptr %3, align 8, !tbaa !35
  %14 = load i64, ptr @rb_cWaiter, align 8, !tbaa !35
  call void @RBASIC_SET_CLASS(i64 noundef %13, i64 noundef %14)
  %15 = load i64, ptr %3, align 8, !tbaa !35
  call void @llvm.lifetime.end.p0(i64 8, ptr %3) #27
  ret i64 %15
}

; Function Attrs: inlinehint nounwind sspstrong uwtable
define internal i32 @rb_num2int_inline(i64 noundef %0) #1 {
  %2 = alloca i64, align 8
  %3 = alloca i64, align 8
  store i64 %0, ptr %2, align 8, !tbaa !35
  call void @llvm.lifetime.start.p0(i64 8, ptr %3) #27
  %4 = load i64, ptr %2, align 8, !tbaa !35
  %5 = call zeroext i1 @RB_FIXNUM_P(i64 noundef %4) #28
  br i1 %5, label %6, label %9

6:                                                ; preds = %1
  %7 = load i64, ptr %2, align 8, !tbaa !35
  %8 = call i64 @rb_fix2int(i64 noundef %7)
  store i64 %8, ptr %3, align 8, !tbaa !35
  br label %12

9:                                                ; preds = %1
  %10 = load i64, ptr %2, align 8, !tbaa !35
  %11 = call i64 @rb_num2int(i64 noundef %10)
  store i64 %11, ptr %3, align 8, !tbaa !35
  br label %12

12:                                               ; preds = %9, %6
  %13 = load i64, ptr %3, align 8, !tbaa !35
  %14 = trunc i64 %13 to i32
  call void @llvm.lifetime.end.p0(i64 8, ptr %3) #27
  ret i32 %14
}

; Function Attrs: nounwind sspstrong uwtable
define internal i64 @proc_detach(i64 noundef %0, i64 noundef %1) #0 {
  %3 = alloca i64, align 8
  %4 = alloca i64, align 8
  store i64 %0, ptr %3, align 8, !tbaa !35
  store i64 %1, ptr %4, align 8, !tbaa !35
  %5 = load i64, ptr %4, align 8, !tbaa !35
  %6 = call i32 @rb_num2int_inline(i64 noundef %5)
  %7 = call i64 @rb_detach_process(i32 noundef %6)
  ret i64 %7
}