; Function Attrs: nounwind sspstrong uwtable
define internal noundef i64 @proc_detach(i64 %0, i64 noundef %1) #1 {
  %3 = and i64 %1, 1
  %.not.i = icmp eq i64 %3, 0
  br i1 %.not.i, label %6, label %4

4:                                                ; preds = %2
  %5 = tail call i64 @rb_fix2int(i64 noundef %1) #27
  br label %rb_num2int_inline.exit

6:                                                ; preds = %2
  %7 = tail call i64 @rb_num2int(i64 noundef %1) #27
  br label %rb_num2int_inline.exit

rb_num2int_inline.exit:                           ; preds = %4, %6
  %.0.i = phi i64 [ %5, %4 ], [ %7, %6 ]
  %sext = shl i64 %.0.i, 32
  %8 = ashr exact i64 %sext, 32
  %9 = inttoptr i64 %8 to ptr
  %10 = tail call i64 @rb_thread_create(ptr noundef nonnull @detach_process_watcher, ptr noundef %9) #27
  %11 = load i64, ptr @id_pid, align 8, !tbaa !43
  %12 = ashr exact i64 %sext, 31
  %13 = or disjoint i64 %12, 1
  %14 = tail call i64 @rb_thread_local_aset(i64 noundef %10, i64 noundef %11, i64 noundef %13) #27
  %15 = load i64, ptr @rb_cWaiter, align 8, !tbaa !43
  %16 = inttoptr i64 %10 to ptr
  %17 = getelementptr inbounds nuw i8, ptr %16, i64 8
  store i64 %15, ptr %17, align 8, !tbaa !43
  %18 = icmp eq i64 %15, 0
  %19 = and i64 %15, 7
  %20 = icmp ne i64 %19, 0
  %21 = or i1 %18, %20
  br i1 %21, label %rb_detach_process.exit, label %22

22:                                               ; preds = %rb_num2int_inline.exit
  tail call void @rb_gc_writebarrier(i64 noundef %10, i64 noundef %15) #27
  br label %rb_detach_process.exit

rb_detach_process.exit:                           ; preds = %rb_num2int_inline.exit, %22
  ret i64 %10
}